target datalayout = "e-m:e-p270:32:32-p271:32:32-p272:64:64-i64:64-i128:128-f80:128-n8:16:32:64-S128"
target triple = "x86_64-pc-linux-gnu"

@_ZN11TypeInstPtr7NOTNULLE = external global ptr, align 8
@_ZN10TypeRawPtr7NOTNULLE = external global ptr, align 8
@_ZN7TypeInt3INTE = external global ptr, align 8

; Function Attrs: mustprogress nounwind uwtable
define hidden noundef ptr @_ZN11OptoRuntime14new_array_TypeEv() #1 align 2 {
  %1 = alloca ptr, align 8
  %2 = alloca ptr, align 8
  %3 = alloca ptr, align 8
  %4 = call noundef ptr @_ZN9TypeTuple6fieldsEj(i32 noundef 2)
  store ptr %4, ptr %1, align 8
  %5 = load ptr, ptr @_ZN11TypeInstPtr7NOTNULLE, align 8
  %6 = load ptr, ptr %1, align 8
  %7 = getelementptr inbounds ptr, ptr %6, i64 5
  store ptr %5, ptr %7, align 8
  %8 = load ptr, ptr @_ZN7TypeInt3INTE, align 8
  %9 = load ptr, ptr %1, align 8
  %10 = getelementptr inbounds ptr, ptr %9, i64 6
  store ptr %8, ptr %10, align 8
  %11 = load ptr, ptr %1, align 8
  %12 = call noundef ptr @_ZN9TypeTuple4makeEjPPK4Type(i32 noundef 7, ptr noundef %11)
  store ptr %12, ptr %2, align 8
  %13 = call noundef ptr @_ZN9TypeTuple6fieldsEj(i32 noundef 1)
  store ptr %13, ptr %1, align 8
  %14 = load ptr, ptr @_ZN10TypeRawPtr7NOTNULLE, align 8
  %15 = load ptr, ptr %1, align 8
  %16 = getelementptr inbounds ptr, ptr %15, i64 5
  store ptr %14, ptr %16, align 8
  %17 = load ptr, ptr %1, align 8
  %18 = call noundef ptr @_ZN9TypeTuple4makeEjPPK4Type(i32 noundef 6, ptr noundef %17)
  store ptr %18, ptr %3, align 8
  %19 = load ptr, ptr %2, align 8
  %20 = load ptr, ptr %3, align 8
  %21 = call noundef ptr @_ZN8TypeFunc4makeEPK9TypeTupleS2_(ptr noundef %19, ptr noundef %20)
  ret ptr %21
}